; Function Attrs: nounwind uwtable
define dso_local ptr @auth_g_get_identity(ptr noundef %0) local_unnamed_addr #2 {
  %.not = icmp eq ptr %0, null
  br i1 %.not, label %16, label %2

2:                                                ; preds = %1
  %3 = tail call i32 @pthread_rwlock_rdlock(ptr noundef nonnull @context_lock) #12
  %.not12 = icmp eq i32 %3, 0
  br i1 %.not12, label %6, label %4

4:                                                ; preds = %2
  %5 = tail call ptr @__errno_location() #13
  store i32 %3, ptr %5, align 4
  tail call void (ptr, ...) @fatal_abort(ptr noundef nonnull @.str.19, ptr noundef nonnull @__func__.auth_g_get_identity) #11
  unreachable

6:                                                ; preds = %2
  %7 = load ptr, ptr @ops, align 8
  %8 = load i32, ptr %0, align 4
  %9 = sext i32 %8 to i64
  %10 = getelementptr inbounds %struct.auth_ops_t, ptr %7, i64 %9, i32 9
  %11 = load ptr, ptr %10, align 8
  %12 = tail call ptr %11(ptr noundef nonnull %0) #12
  %13 = tail call i32 @pthread_rwlock_unlock(ptr noundef nonnull @context_lock) #12
  %.not13 = icmp eq i32 %13, 0
  br i1 %.not13, label %16, label %14

14:                                               ; preds = %6
  %15 = tail call ptr @__errno_location() #13
  store i32 %13, ptr %15, align 4
  tail call void (ptr, ...) @fatal_abort(ptr noundef nonnull @.str.17, ptr noundef nonnull @__func__.auth_g_get_identity) #11
  unreachable

16:                                               ; preds = %6, %1
  %.0 = phi ptr [ null, %1 ], [ %12, %6 ]
  ret ptr %.0
}